ARM GAS  /tmp/ccTJbdVB.s 			page 1


   1              		.cpu cortex-m3
   2              		.arch armv7-m
   3              		.fpu softvfp
   4              		.eabi_attribute 20, 1
   5              		.eabi_attribute 21, 1
   6              		.eabi_attribute 23, 3
   7              		.eabi_attribute 24, 1
   8              		.eabi_attribute 25, 1
   9              		.eabi_attribute 26, 1
  10              		.eabi_attribute 30, 1
  11              		.eabi_attribute 34, 1
  12              		.eabi_attribute 18, 4
  13              		.file	"main.c"
  14              		.text
  15              	.Ltext0:
  16              		.cfi_sections	.debug_frame
  17              		.file 1 "Core/Src/main.c"
  18              		.section	.text.MX_GPIO_Init,"ax",%progbits
  19              		.align	1
  20              		.syntax unified
  21              		.thumb
  22              		.thumb_func
  24              	MX_GPIO_Init:
  25              	.LFB71:
   1:Core/Src/main.c **** /* USER CODE BEGIN Header */
   2:Core/Src/main.c **** /**
   3:Core/Src/main.c ****  ******************************************************************************
   4:Core/Src/main.c ****  * @file           : main.c
   5:Core/Src/main.c ****  * @brief          : Main program body
   6:Core/Src/main.c ****  ******************************************************************************
   7:Core/Src/main.c ****  * @attention
   8:Core/Src/main.c ****  *
   9:Core/Src/main.c ****  * Copyright (c) 2025 STMicroelectronics.
  10:Core/Src/main.c ****  * All rights reserved.
  11:Core/Src/main.c ****  *
  12:Core/Src/main.c ****  * This software is licensed under terms that can be found in the LICENSE file
  13:Core/Src/main.c ****  * in the root directory of this software component.
  14:Core/Src/main.c ****  * If no LICENSE file comes with this software, it is provided AS-IS.
  15:Core/Src/main.c ****  *
  16:Core/Src/main.c ****  ******************************************************************************
  17:Core/Src/main.c ****  */
  18:Core/Src/main.c **** /* USER CODE END Header */
  19:Core/Src/main.c **** /* Includes ------------------------------------------------------------------*/
  20:Core/Src/main.c **** #include "main.h"
  21:Core/Src/main.c **** 
  22:Core/Src/main.c **** /* Private includes ----------------------------------------------------------*/
  23:Core/Src/main.c **** /* USER CODE BEGIN Includes */
  24:Core/Src/main.c **** 
  25:Core/Src/main.c **** /* USER CODE END Includes */
  26:Core/Src/main.c **** 
  27:Core/Src/main.c **** /* Private typedef -----------------------------------------------------------*/
  28:Core/Src/main.c **** /* USER CODE BEGIN PTD */
  29:Core/Src/main.c **** 
  30:Core/Src/main.c **** /* USER CODE END PTD */
  31:Core/Src/main.c **** 
  32:Core/Src/main.c **** /* Private define ------------------------------------------------------------*/
  33:Core/Src/main.c **** /* USER CODE BEGIN PD */
ARM GAS  /tmp/ccTJbdVB.s 			page 2


  34:Core/Src/main.c **** #define EEPROM_INSTR_READ 0x03  // read data
  35:Core/Src/main.c **** #define EEPROM_INSTR_WRITE 0x02 // write data
  36:Core/Src/main.c **** #define EEPROM_INSTR_WRDI 0x04  // set the write disable
  37:Core/Src/main.c **** #define EEPROM_INSTR_WREN 0x06  // set the write enable
  38:Core/Src/main.c **** #define EEPROM_INSTR_RDSR 0x05  // read status register
  39:Core/Src/main.c **** #define EEPROM_INSTR_WRSR 0x01  // write status register
  40:Core/Src/main.c **** 
  41:Core/Src/main.c **** #define EEPROM_CS_LOW()                                                        \
  42:Core/Src/main.c ****   HAL_GPIO_WritePin(GPIOB, GPIO_PIN_12, GPIO_PIN_RESET) // Select slave Pin
  43:Core/Src/main.c **** #define EEPROM_CS_HIGH()                                                       \
  44:Core/Src/main.c ****   HAL_GPIO_WritePin(GPIOB, GPIO_PIN_12, GPIO_PIN_SET) // Select slave Pin
  45:Core/Src/main.c **** /* USER CODE END PD */
  46:Core/Src/main.c **** 
  47:Core/Src/main.c **** /* Private macro -------------------------------------------------------------*/
  48:Core/Src/main.c **** /* USER CODE BEGIN PM */
  49:Core/Src/main.c **** 
  50:Core/Src/main.c **** /* USER CODE END PM */
  51:Core/Src/main.c **** 
  52:Core/Src/main.c **** /* Private variables ---------------------------------------------------------*/
  53:Core/Src/main.c **** SPI_HandleTypeDef hspi2;
  54:Core/Src/main.c **** 
  55:Core/Src/main.c **** /* USER CODE BEGIN PV */
  56:Core/Src/main.c **** 
  57:Core/Src/main.c **** /* USER CODE END PV */
  58:Core/Src/main.c **** 
  59:Core/Src/main.c **** /* Private function prototypes -----------------------------------------------*/
  60:Core/Src/main.c **** void SystemClock_Config(void);
  61:Core/Src/main.c **** static void MX_GPIO_Init(void);
  62:Core/Src/main.c **** static void MX_SPI2_Init(void);
  63:Core/Src/main.c **** /* USER CODE BEGIN PFP */
  64:Core/Src/main.c **** 
  65:Core/Src/main.c **** /* USER CODE END PFP */
  66:Core/Src/main.c **** 
  67:Core/Src/main.c **** /* Private user code ---------------------------------------------------------*/
  68:Core/Src/main.c **** /* USER CODE BEGIN 0 */
  69:Core/Src/main.c **** uint8_t EEPROM_ReadByte(uint16_t addr) {
  70:Core/Src/main.c ****   uint8_t data;
  71:Core/Src/main.c ****   uint8_t msg[3];
  72:Core/Src/main.c ****   msg[0] = EEPROM_INSTR_READ;
  73:Core/Src/main.c ****   msg[1] = (addr >> 8) & 0xFF; // MSB wird um 8 bits nach rechts verschoben
  74:Core/Src/main.c ****                                // und anschlißen wird der rest "abgeschnitten"
  75:Core/Src/main.c ****   msg[2] = addr & 0xFF;
  76:Core/Src/main.c **** 
  77:Core/Src/main.c ****   EEPROM_CS_LOW();
  78:Core/Src/main.c ****   HAL_SPI_Transmit(&hspi2, msg, 3,
  79:Core/Src/main.c ****                    HAL_MAX_DELAY); // separates transmit und receive, da hier
  80:Core/Src/main.c ****                                    // ers die adresse gesendet werden musss
  81:Core/Src/main.c ****                                    // bevor diese ausgelesen werden kann
  82:Core/Src/main.c ****   HAL_SPI_Receive(&hspi2, &data, 1, HAL_MAX_DELAY);
  83:Core/Src/main.c ****   HAL_Delay(100);
  84:Core/Src/main.c **** 
  85:Core/Src/main.c ****   EEPROM_CS_HIGH();
  86:Core/Src/main.c **** 
  87:Core/Src/main.c ****   return data;
  88:Core/Src/main.c **** }
  89:Core/Src/main.c **** 
  90:Core/Src/main.c **** // eleganterere Lösung anstelle den Zeitraum des schrins durch beliebige zeit zu
ARM GAS  /tmp/ccTJbdVB.s 			page 3


  91:Core/Src/main.c **** // warten (zu lang, zu kuurz ....)
  92:Core/Src/main.c **** uint8_t EEPROM_ReadStatus(void) {
  93:Core/Src/main.c ****   uint8_t instruction = EEPROM_INSTR_RDSR;
  94:Core/Src/main.c ****   uint8_t status;
  95:Core/Src/main.c **** 
  96:Core/Src/main.c ****   EEPROM_CS_LOW();
  97:Core/Src/main.c ****   HAL_SPI_Transmit(&hspi2, &instruction, 1, HAL_MAX_DELAY);
  98:Core/Src/main.c ****   HAL_SPI_Receive(&hspi2, &status, 1, HAL_MAX_DELAY);
  99:Core/Src/main.c ****   EEPROM_CS_HIGH();
 100:Core/Src/main.c **** 
 101:Core/Src/main.c ****   return status;
 102:Core/Src/main.c **** }
 103:Core/Src/main.c **** void EEPROM_WriteByte(uint16_t addr, uint8_t counter) {
 104:Core/Src/main.c ****   uint8_t wren = EEPROM_INSTR_WREN;
 105:Core/Src/main.c ****   EEPROM_CS_LOW();
 106:Core/Src/main.c ****   HAL_SPI_Transmit(&hspi2, &wren, 1, HAL_MAX_DELAY);
 107:Core/Src/main.c ****   EEPROM_CS_HIGH();
 108:Core/Src/main.c **** 
 109:Core/Src/main.c ****   HAL_Delay(10);
 110:Core/Src/main.c **** 
 111:Core/Src/main.c ****   uint8_t data = 0x00 + counter;
 112:Core/Src/main.c ****   uint8_t msg[4];
 113:Core/Src/main.c **** 
 114:Core/Src/main.c ****   msg[0] = EEPROM_INSTR_WRITE;
 115:Core/Src/main.c ****   msg[1] = (addr >> 8) & 0xFF;
 116:Core/Src/main.c ****   msg[2] = addr & 0xFF;
 117:Core/Src/main.c ****   msg[3] = data;
 118:Core/Src/main.c **** 
 119:Core/Src/main.c ****   EEPROM_CS_LOW();
 120:Core/Src/main.c ****   HAL_SPI_Transmit(&hspi2, msg, 4, HAL_MAX_DELAY);
 121:Core/Src/main.c ****   EEPROM_CS_HIGH();
 122:Core/Src/main.c **** 
 123:Core/Src/main.c ****   // Self-Timed Erase and Write Cycles(5 ms maximum) --> datasheet
 124:Core/Src/main.c ****   while (EEPROM_ReadStatus() & 0x01) // uns interessiert nur erstes bit
 125:Core/Src/main.c ****   {
 126:Core/Src/main.c ****     // Write-In-Process (WIP) ist anschienend gesetzt
 127:Core/Src/main.c ****     // warten bis nächster Prüfung
 128:Core/Src/main.c ****     HAL_Delay(1);
 129:Core/Src/main.c ****   }
 130:Core/Src/main.c **** }
 131:Core/Src/main.c **** /* USER CODE END 0 */
 132:Core/Src/main.c **** 
 133:Core/Src/main.c **** /**
 134:Core/Src/main.c ****  * @brief  The application entry point.
 135:Core/Src/main.c ****  * @retval int
 136:Core/Src/main.c ****  */
 137:Core/Src/main.c **** int main(void) {
 138:Core/Src/main.c **** 
 139:Core/Src/main.c ****   /* USER CODE BEGIN 1 */
 140:Core/Src/main.c **** 
 141:Core/Src/main.c ****   /* USER CODE END 1 */
 142:Core/Src/main.c **** 
 143:Core/Src/main.c ****   /* MCU Configuration--------------------------------------------------------*/
 144:Core/Src/main.c **** 
 145:Core/Src/main.c ****   /* Reset of all peripherals, Initializes the Flash interface and the Systick.
 146:Core/Src/main.c ****    */
 147:Core/Src/main.c ****   HAL_Init();
ARM GAS  /tmp/ccTJbdVB.s 			page 4


 148:Core/Src/main.c **** 
 149:Core/Src/main.c ****   /* USER CODE BEGIN Init */
 150:Core/Src/main.c **** 
 151:Core/Src/main.c ****   /* USER CODE END Init */
 152:Core/Src/main.c **** 
 153:Core/Src/main.c ****   /* Configure the system clock */
 154:Core/Src/main.c ****   SystemClock_Config();
 155:Core/Src/main.c **** 
 156:Core/Src/main.c ****   /* USER CODE BEGIN SysInit */
 157:Core/Src/main.c **** 
 158:Core/Src/main.c ****   /* USER CODE END SysInit */
 159:Core/Src/main.c **** 
 160:Core/Src/main.c ****   /* Initialize all configured peripherals */
 161:Core/Src/main.c ****   MX_GPIO_Init();
 162:Core/Src/main.c ****   MX_SPI2_Init();
 163:Core/Src/main.c ****   /* USER CODE BEGIN 2 */
 164:Core/Src/main.c **** 
 165:Core/Src/main.c ****   /* USER CODE END 2 */
 166:Core/Src/main.c **** 
 167:Core/Src/main.c ****   /* Infinite loop */
 168:Core/Src/main.c ****   /* USER CODE BEGIN WHILE */
 169:Core/Src/main.c ****   GPIO_PinState buttonStatus;
 170:Core/Src/main.c ****   GPIO_PinState last_button_state = GPIO_PIN_RESET;
 171:Core/Src/main.c ****   uint8_t counter = 0;
 172:Core/Src/main.c ****   // const uint8_t message[] = "hello!1";
 173:Core/Src/main.c ****   // uint8_t empfangen[sizeof(message)];
 174:Core/Src/main.c ****   while (1) {
 175:Core/Src/main.c ****     HAL_GPIO_WritePin(GPIOC, GPIO_PIN_8, GPIO_PIN_RESET);
 176:Core/Src/main.c ****     HAL_GPIO_WritePin(GPIOC, GPIO_PIN_9, GPIO_PIN_RESET);
 177:Core/Src/main.c **** 
 178:Core/Src/main.c ****     buttonStatus = HAL_GPIO_ReadPin(GPIOA, GPIO_PIN_0);
 179:Core/Src/main.c **** 
 180:Core/Src/main.c ****     if (buttonStatus == GPIO_PIN_SET && last_button_state == GPIO_PIN_RESET) {
 181:Core/Src/main.c ****       HAL_GPIO_TogglePin(GPIOC, GPIO_PIN_8);
 182:Core/Src/main.c ****       HAL_GPIO_TogglePin(GPIOC, GPIO_PIN_9);
 183:Core/Src/main.c ****       EEPROM_WriteByte(0x0000, counter);
 184:Core/Src/main.c ****       volatile uint8_t value = EEPROM_ReadByte(0x0000);
 185:Core/Src/main.c ****       counter++;
 186:Core/Src/main.c ****     }
 187:Core/Src/main.c ****     last_button_state = buttonStatus;
 188:Core/Src/main.c **** 
 189:Core/Src/main.c ****     HAL_Delay(50); // debouncen -> alternativ software zietfenster mit counter
 190:Core/Src/main.c ****                    // beipsilsweise
 191:Core/Src/main.c **** 
 192:Core/Src/main.c ****     // HAL_GPIO_WritePin(GPIOC, GPIO_PIN_8, GPIO_PIN_RESET);
 193:Core/Src/main.c ****     // HAL_GPIO_WritePin(GPIOC, GPIO_PIN_9, GPIO_PIN_RESET);
 194:Core/Src/main.c ****     // HAL_Delay(1000);
 195:Core/Src/main.c ****     /* USER CODE END WHILE */
 196:Core/Src/main.c **** 
 197:Core/Src/main.c ****     /* USER CODE BEGIN 3 */
 198:Core/Src/main.c ****     //   HAL_GPIO_WritePin(GPIOC, GPIO_PIN_8, GPIO_PIN_SET);
 199:Core/Src/main.c **** 
 200:Core/Src/main.c ****     //   HAL_Delay(1000);
 201:Core/Src/main.c **** 
 202:Core/Src/main.c ****     //   HAL_SPI_TransmitReceive(&hspi2, message, empfangen, (uint16_t)8,
 203:Core/Src/main.c ****     //   HAL_MAX_DELAY); // Gesendete Bytes kommen direkt zurück, sofort
 204:Core/Src/main.c ****     //   nutzbar, da master und slave dieselben sind (loopback)
ARM GAS  /tmp/ccTJbdVB.s 			page 5


 205:Core/Src/main.c **** 
 206:Core/Src/main.c ****     //   if (strcmp(message, empfangen) == 0) {
 207:Core/Src/main.c ****     //     HAL_GPIO_WritePin(GPIOC, GPIO_PIN_8, GPIO_PIN_SET);
 208:Core/Src/main.c ****     //     HAL_GPIO_WritePin(GPIOC, GPIO_PIN_9, GPIO_PIN_SET);
 209:Core/Src/main.c ****     //   }
 210:Core/Src/main.c **** 
 211:Core/Src/main.c ****     //   HAL_Delay(3000);
 212:Core/Src/main.c ****   }
 213:Core/Src/main.c ****   /* USER CODE END 3 */
 214:Core/Src/main.c **** }
 215:Core/Src/main.c **** 
 216:Core/Src/main.c **** /**
 217:Core/Src/main.c ****  * @brief System Clock Configuration
 218:Core/Src/main.c ****  * @retval None
 219:Core/Src/main.c ****  */
 220:Core/Src/main.c **** void SystemClock_Config(void) {
 221:Core/Src/main.c ****   RCC_OscInitTypeDef RCC_OscInitStruct = {0};
 222:Core/Src/main.c ****   RCC_ClkInitTypeDef RCC_ClkInitStruct = {0};
 223:Core/Src/main.c **** 
 224:Core/Src/main.c ****   /** Initializes the RCC Oscillators according to the specified parameters
 225:Core/Src/main.c ****    * in the RCC_OscInitTypeDef structure.
 226:Core/Src/main.c ****    */
 227:Core/Src/main.c ****   RCC_OscInitStruct.OscillatorType = RCC_OSCILLATORTYPE_HSI;
 228:Core/Src/main.c ****   RCC_OscInitStruct.HSIState = RCC_HSI_ON;
 229:Core/Src/main.c ****   RCC_OscInitStruct.HSICalibrationValue = RCC_HSICALIBRATION_DEFAULT;
 230:Core/Src/main.c ****   RCC_OscInitStruct.PLL.PLLState = RCC_PLL_NONE;
 231:Core/Src/main.c ****   if (HAL_RCC_OscConfig(&RCC_OscInitStruct) != HAL_OK) {
 232:Core/Src/main.c ****     Error_Handler();
 233:Core/Src/main.c ****   }
 234:Core/Src/main.c **** 
 235:Core/Src/main.c ****   /** Initializes the CPU, AHB and APB buses clocks
 236:Core/Src/main.c ****    */
 237:Core/Src/main.c ****   RCC_ClkInitStruct.ClockType = RCC_CLOCKTYPE_HCLK | RCC_CLOCKTYPE_SYSCLK |
 238:Core/Src/main.c ****                                 RCC_CLOCKTYPE_PCLK1 | RCC_CLOCKTYPE_PCLK2;
 239:Core/Src/main.c ****   RCC_ClkInitStruct.SYSCLKSource = RCC_SYSCLKSOURCE_HSI;
 240:Core/Src/main.c ****   RCC_ClkInitStruct.AHBCLKDivider = RCC_SYSCLK_DIV1;
 241:Core/Src/main.c ****   RCC_ClkInitStruct.APB1CLKDivider = RCC_HCLK_DIV1;
 242:Core/Src/main.c ****   RCC_ClkInitStruct.APB2CLKDivider = RCC_HCLK_DIV1;
 243:Core/Src/main.c **** 
 244:Core/Src/main.c ****   if (HAL_RCC_ClockConfig(&RCC_ClkInitStruct, FLASH_LATENCY_0) != HAL_OK) {
 245:Core/Src/main.c ****     Error_Handler();
 246:Core/Src/main.c ****   }
 247:Core/Src/main.c **** }
 248:Core/Src/main.c **** 
 249:Core/Src/main.c **** /**
 250:Core/Src/main.c ****  * @brief SPI2 Initialization Function
 251:Core/Src/main.c ****  * @param None
 252:Core/Src/main.c ****  * @retval None
 253:Core/Src/main.c ****  */
 254:Core/Src/main.c **** static void MX_SPI2_Init(void) {
 255:Core/Src/main.c **** 
 256:Core/Src/main.c ****   /* USER CODE BEGIN SPI2_Init 0 */
 257:Core/Src/main.c **** 
 258:Core/Src/main.c ****   /* USER CODE END SPI2_Init 0 */
 259:Core/Src/main.c **** 
 260:Core/Src/main.c ****   /* USER CODE BEGIN SPI2_Init 1 */
 261:Core/Src/main.c **** 
ARM GAS  /tmp/ccTJbdVB.s 			page 6


 262:Core/Src/main.c ****   /* USER CODE END SPI2_Init 1 */
 263:Core/Src/main.c ****   /* SPI2 parameter configuration*/
 264:Core/Src/main.c ****   hspi2.Instance = SPI2;
 265:Core/Src/main.c ****   hspi2.Init.Mode = SPI_MODE_MASTER;
 266:Core/Src/main.c ****   hspi2.Init.Direction = SPI_DIRECTION_2LINES;
 267:Core/Src/main.c ****   hspi2.Init.DataSize = SPI_DATASIZE_8BIT;
 268:Core/Src/main.c ****   hspi2.Init.CLKPolarity = SPI_POLARITY_LOW;
 269:Core/Src/main.c ****   hspi2.Init.CLKPhase = SPI_PHASE_1EDGE;
 270:Core/Src/main.c ****   hspi2.Init.NSS = SPI_NSS_SOFT;
 271:Core/Src/main.c ****   hspi2.Init.BaudRatePrescaler = SPI_BAUDRATEPRESCALER_2;
 272:Core/Src/main.c ****   hspi2.Init.FirstBit = SPI_FIRSTBIT_MSB;
 273:Core/Src/main.c ****   hspi2.Init.TIMode = SPI_TIMODE_DISABLE;
 274:Core/Src/main.c ****   hspi2.Init.CRCCalculation = SPI_CRCCALCULATION_DISABLE;
 275:Core/Src/main.c ****   hspi2.Init.CRCPolynomial = 10;
 276:Core/Src/main.c ****   if (HAL_SPI_Init(&hspi2) != HAL_OK) {
 277:Core/Src/main.c ****     Error_Handler();
 278:Core/Src/main.c ****   }
 279:Core/Src/main.c ****   /* USER CODE BEGIN SPI2_Init 2 */
 280:Core/Src/main.c **** 
 281:Core/Src/main.c ****   /* USER CODE END SPI2_Init 2 */
 282:Core/Src/main.c **** }
 283:Core/Src/main.c **** 
 284:Core/Src/main.c **** /**
 285:Core/Src/main.c ****  * @brief GPIO Initialization Function
 286:Core/Src/main.c ****  * @param None
 287:Core/Src/main.c ****  * @retval None
 288:Core/Src/main.c ****  */
 289:Core/Src/main.c **** static void MX_GPIO_Init(void) {
  26              		.loc 1 289 32 view -0
  27              		.cfi_startproc
  28              		@ args = 0, pretend = 0, frame = 32
  29              		@ frame_needed = 0, uses_anonymous_args = 0
  30 0000 2DE9F041 		push	{r4, r5, r6, r7, r8, lr}
  31              	.LCFI0:
  32              		.cfi_def_cfa_offset 24
  33              		.cfi_offset 4, -24
  34              		.cfi_offset 5, -20
  35              		.cfi_offset 6, -16
  36              		.cfi_offset 7, -12
  37              		.cfi_offset 8, -8
  38              		.cfi_offset 14, -4
  39 0004 88B0     		sub	sp, sp, #32
  40              	.LCFI1:
  41              		.cfi_def_cfa_offset 56
 290:Core/Src/main.c ****   GPIO_InitTypeDef GPIO_InitStruct = {0};
  42              		.loc 1 290 3 view .LVU1
  43              		.loc 1 290 20 is_stmt 0 view .LVU2
  44 0006 0024     		movs	r4, #0
  45 0008 0494     		str	r4, [sp, #16]
  46 000a 0594     		str	r4, [sp, #20]
  47 000c 0694     		str	r4, [sp, #24]
  48 000e 0794     		str	r4, [sp, #28]
 291:Core/Src/main.c ****   /* USER CODE BEGIN MX_GPIO_Init_1 */
 292:Core/Src/main.c **** 
 293:Core/Src/main.c ****   /* USER CODE END MX_GPIO_Init_1 */
 294:Core/Src/main.c **** 
 295:Core/Src/main.c ****   /* GPIO Ports Clock Enable */
ARM GAS  /tmp/ccTJbdVB.s 			page 7


 296:Core/Src/main.c ****   __HAL_RCC_GPIOB_CLK_ENABLE();
  49              		.loc 1 296 3 is_stmt 1 view .LVU3
  50              	.LBB4:
  51              		.loc 1 296 3 view .LVU4
  52              		.loc 1 296 3 view .LVU5
  53 0010 254B     		ldr	r3, .L3
  54 0012 9A69     		ldr	r2, [r3, #24]
  55 0014 42F00802 		orr	r2, r2, #8
  56 0018 9A61     		str	r2, [r3, #24]
  57              		.loc 1 296 3 view .LVU6
  58 001a 9A69     		ldr	r2, [r3, #24]
  59 001c 02F00802 		and	r2, r2, #8
  60 0020 0192     		str	r2, [sp, #4]
  61              		.loc 1 296 3 view .LVU7
  62 0022 019A     		ldr	r2, [sp, #4]
  63              	.LBE4:
  64              		.loc 1 296 3 view .LVU8
 297:Core/Src/main.c ****   __HAL_RCC_GPIOC_CLK_ENABLE();
  65              		.loc 1 297 3 view .LVU9
  66              	.LBB5:
  67              		.loc 1 297 3 view .LVU10
  68              		.loc 1 297 3 view .LVU11
  69 0024 9A69     		ldr	r2, [r3, #24]
  70 0026 42F01002 		orr	r2, r2, #16
  71 002a 9A61     		str	r2, [r3, #24]
  72              		.loc 1 297 3 view .LVU12
  73 002c 9A69     		ldr	r2, [r3, #24]
  74 002e 02F01002 		and	r2, r2, #16
  75 0032 0292     		str	r2, [sp, #8]
  76              		.loc 1 297 3 view .LVU13
  77 0034 029A     		ldr	r2, [sp, #8]
  78              	.LBE5:
  79              		.loc 1 297 3 view .LVU14
 298:Core/Src/main.c ****   __HAL_RCC_GPIOA_CLK_ENABLE();
  80              		.loc 1 298 3 view .LVU15
  81              	.LBB6:
  82              		.loc 1 298 3 view .LVU16
  83              		.loc 1 298 3 view .LVU17
  84 0036 9A69     		ldr	r2, [r3, #24]
  85 0038 42F00402 		orr	r2, r2, #4
  86 003c 9A61     		str	r2, [r3, #24]
  87              		.loc 1 298 3 view .LVU18
  88 003e 9B69     		ldr	r3, [r3, #24]
  89 0040 03F00403 		and	r3, r3, #4
  90 0044 0393     		str	r3, [sp, #12]
  91              		.loc 1 298 3 view .LVU19
  92 0046 039B     		ldr	r3, [sp, #12]
  93              	.LBE6:
  94              		.loc 1 298 3 view .LVU20
 299:Core/Src/main.c **** 
 300:Core/Src/main.c ****   /*Configure GPIO pin Output Level */
 301:Core/Src/main.c ****   HAL_GPIO_WritePin(GPIOB, GPIO_PIN_12, GPIO_PIN_RESET);
  95              		.loc 1 301 3 view .LVU21
  96 0048 DFF86080 		ldr	r8, .L3+4
  97 004c 2246     		mov	r2, r4
  98 004e 4FF48051 		mov	r1, #4096
  99 0052 4046     		mov	r0, r8
ARM GAS  /tmp/ccTJbdVB.s 			page 8


 100 0054 FFF7FEFF 		bl	HAL_GPIO_WritePin
 101              	.LVL0:
 302:Core/Src/main.c **** 
 303:Core/Src/main.c ****   /*Configure GPIO pin Output Level */
 304:Core/Src/main.c ****   HAL_GPIO_WritePin(GPIOC, GPIO_PIN_8 | GPIO_PIN_9, GPIO_PIN_RESET);
 102              		.loc 1 304 3 view .LVU22
 103 0058 154E     		ldr	r6, .L3+8
 104 005a 2246     		mov	r2, r4
 105 005c 4FF44071 		mov	r1, #768
 106 0060 3046     		mov	r0, r6
 107 0062 FFF7FEFF 		bl	HAL_GPIO_WritePin
 108              	.LVL1:
 305:Core/Src/main.c **** 
 306:Core/Src/main.c ****   /*Configure GPIO pin : PB12 */
 307:Core/Src/main.c ****   GPIO_InitStruct.Pin = GPIO_PIN_12;
 109              		.loc 1 307 3 view .LVU23
 110              		.loc 1 307 23 is_stmt 0 view .LVU24
 111 0066 4FF48053 		mov	r3, #4096
 112 006a 0493     		str	r3, [sp, #16]
 308:Core/Src/main.c ****   GPIO_InitStruct.Mode = GPIO_MODE_OUTPUT_PP;
 113              		.loc 1 308 3 is_stmt 1 view .LVU25
 114              		.loc 1 308 24 is_stmt 0 view .LVU26
 115 006c 0125     		movs	r5, #1
 116 006e 0595     		str	r5, [sp, #20]
 309:Core/Src/main.c ****   GPIO_InitStruct.Pull = GPIO_NOPULL;
 117              		.loc 1 309 3 is_stmt 1 view .LVU27
 118              		.loc 1 309 24 is_stmt 0 view .LVU28
 119 0070 0694     		str	r4, [sp, #24]
 310:Core/Src/main.c ****   GPIO_InitStruct.Speed = GPIO_SPEED_FREQ_LOW;
 120              		.loc 1 310 3 is_stmt 1 view .LVU29
 121              		.loc 1 310 25 is_stmt 0 view .LVU30
 122 0072 0227     		movs	r7, #2
 123 0074 0797     		str	r7, [sp, #28]
 311:Core/Src/main.c ****   HAL_GPIO_Init(GPIOB, &GPIO_InitStruct);
 124              		.loc 1 311 3 is_stmt 1 view .LVU31
 125 0076 04A9     		add	r1, sp, #16
 126 0078 4046     		mov	r0, r8
 127 007a FFF7FEFF 		bl	HAL_GPIO_Init
 128              	.LVL2:
 312:Core/Src/main.c **** 
 313:Core/Src/main.c ****   /*Configure GPIO pins : PC8 PC9 */
 314:Core/Src/main.c ****   GPIO_InitStruct.Pin = GPIO_PIN_8 | GPIO_PIN_9;
 129              		.loc 1 314 3 view .LVU32
 130              		.loc 1 314 23 is_stmt 0 view .LVU33
 131 007e 4FF44073 		mov	r3, #768
 132 0082 0493     		str	r3, [sp, #16]
 315:Core/Src/main.c ****   GPIO_InitStruct.Mode = GPIO_MODE_OUTPUT_PP;
 133              		.loc 1 315 3 is_stmt 1 view .LVU34
 134              		.loc 1 315 24 is_stmt 0 view .LVU35
 135 0084 0595     		str	r5, [sp, #20]
 316:Core/Src/main.c ****   GPIO_InitStruct.Pull = GPIO_NOPULL;
 136              		.loc 1 316 3 is_stmt 1 view .LVU36
 137              		.loc 1 316 24 is_stmt 0 view .LVU37
 138 0086 0694     		str	r4, [sp, #24]
 317:Core/Src/main.c ****   GPIO_InitStruct.Speed = GPIO_SPEED_FREQ_LOW;
 139              		.loc 1 317 3 is_stmt 1 view .LVU38
 140              		.loc 1 317 25 is_stmt 0 view .LVU39
ARM GAS  /tmp/ccTJbdVB.s 			page 9


 141 0088 0797     		str	r7, [sp, #28]
 318:Core/Src/main.c ****   HAL_GPIO_Init(GPIOC, &GPIO_InitStruct);
 142              		.loc 1 318 3 is_stmt 1 view .LVU40
 143 008a 04A9     		add	r1, sp, #16
 144 008c 3046     		mov	r0, r6
 145 008e FFF7FEFF 		bl	HAL_GPIO_Init
 146              	.LVL3:
 319:Core/Src/main.c **** 
 320:Core/Src/main.c ****   /*Configure GPIO pin : PA0 */
 321:Core/Src/main.c ****   GPIO_InitStruct.Pin = GPIO_PIN_0;
 147              		.loc 1 321 3 view .LVU41
 148              		.loc 1 321 23 is_stmt 0 view .LVU42
 149 0092 0495     		str	r5, [sp, #16]
 322:Core/Src/main.c ****   GPIO_InitStruct.Mode = GPIO_MODE_INPUT;
 150              		.loc 1 322 3 is_stmt 1 view .LVU43
 151              		.loc 1 322 24 is_stmt 0 view .LVU44
 152 0094 0594     		str	r4, [sp, #20]
 323:Core/Src/main.c ****   GPIO_InitStruct.Pull = GPIO_NOPULL;
 153              		.loc 1 323 3 is_stmt 1 view .LVU45
 154              		.loc 1 323 24 is_stmt 0 view .LVU46
 155 0096 0694     		str	r4, [sp, #24]
 324:Core/Src/main.c ****   HAL_GPIO_Init(GPIOA, &GPIO_InitStruct);
 156              		.loc 1 324 3 is_stmt 1 view .LVU47
 157 0098 04A9     		add	r1, sp, #16
 158 009a 0648     		ldr	r0, .L3+12
 159 009c FFF7FEFF 		bl	HAL_GPIO_Init
 160              	.LVL4:
 325:Core/Src/main.c **** 
 326:Core/Src/main.c ****   /* USER CODE BEGIN MX_GPIO_Init_2 */
 327:Core/Src/main.c **** 
 328:Core/Src/main.c ****   /* USER CODE END MX_GPIO_Init_2 */
 329:Core/Src/main.c **** }
 161              		.loc 1 329 1 is_stmt 0 view .LVU48
 162 00a0 08B0     		add	sp, sp, #32
 163              	.LCFI2:
 164              		.cfi_def_cfa_offset 24
 165              		@ sp needed
 166 00a2 BDE8F081 		pop	{r4, r5, r6, r7, r8, pc}
 167              	.L4:
 168 00a6 00BF     		.align	2
 169              	.L3:
 170 00a8 00100240 		.word	1073876992
 171 00ac 000C0140 		.word	1073810432
 172 00b0 00100140 		.word	1073811456
 173 00b4 00080140 		.word	1073809408
 174              		.cfi_endproc
 175              	.LFE71:
 177              		.section	.text.EEPROM_ReadByte,"ax",%progbits
 178              		.align	1
 179              		.global	EEPROM_ReadByte
 180              		.syntax unified
 181              		.thumb
 182              		.thumb_func
 184              	EEPROM_ReadByte:
 185              	.LVL5:
 186              	.LFB65:
  69:Core/Src/main.c ****   uint8_t data;
ARM GAS  /tmp/ccTJbdVB.s 			page 10


 187              		.loc 1 69 40 is_stmt 1 view -0
 188              		.cfi_startproc
 189              		@ args = 0, pretend = 0, frame = 8
 190              		@ frame_needed = 0, uses_anonymous_args = 0
  69:Core/Src/main.c ****   uint8_t data;
 191              		.loc 1 69 40 is_stmt 0 view .LVU50
 192 0000 70B5     		push	{r4, r5, r6, lr}
 193              	.LCFI3:
 194              		.cfi_def_cfa_offset 16
 195              		.cfi_offset 4, -16
 196              		.cfi_offset 5, -12
 197              		.cfi_offset 6, -8
 198              		.cfi_offset 14, -4
 199 0002 82B0     		sub	sp, sp, #8
 200              	.LCFI4:
 201              		.cfi_def_cfa_offset 24
  70:Core/Src/main.c ****   uint8_t msg[3];
 202              		.loc 1 70 3 is_stmt 1 view .LVU51
  71:Core/Src/main.c ****   msg[0] = EEPROM_INSTR_READ;
 203              		.loc 1 71 3 view .LVU52
  72:Core/Src/main.c ****   msg[1] = (addr >> 8) & 0xFF; // MSB wird um 8 bits nach rechts verschoben
 204              		.loc 1 72 3 view .LVU53
  72:Core/Src/main.c ****   msg[1] = (addr >> 8) & 0xFF; // MSB wird um 8 bits nach rechts verschoben
 205              		.loc 1 72 10 is_stmt 0 view .LVU54
 206 0004 0326     		movs	r6, #3
 207 0006 8DF80460 		strb	r6, [sp, #4]
  73:Core/Src/main.c ****                                // und anschlißen wird der rest "abgeschnitten"
 208              		.loc 1 73 3 is_stmt 1 view .LVU55
  73:Core/Src/main.c ****                                // und anschlißen wird der rest "abgeschnitten"
 209              		.loc 1 73 10 is_stmt 0 view .LVU56
 210 000a 030A     		lsrs	r3, r0, #8
 211 000c 8DF80530 		strb	r3, [sp, #5]
  75:Core/Src/main.c **** 
 212              		.loc 1 75 3 is_stmt 1 view .LVU57
  75:Core/Src/main.c **** 
 213              		.loc 1 75 10 is_stmt 0 view .LVU58
 214 0010 8DF80600 		strb	r0, [sp, #6]
  77:Core/Src/main.c ****   HAL_SPI_Transmit(&hspi2, msg, 3,
 215              		.loc 1 77 3 is_stmt 1 view .LVU59
 216 0014 114C     		ldr	r4, .L7
 217 0016 0022     		movs	r2, #0
 218 0018 4FF48051 		mov	r1, #4096
 219 001c 2046     		mov	r0, r4
 220              	.LVL6:
  77:Core/Src/main.c ****   HAL_SPI_Transmit(&hspi2, msg, 3,
 221              		.loc 1 77 3 is_stmt 0 view .LVU60
 222 001e FFF7FEFF 		bl	HAL_GPIO_WritePin
 223              	.LVL7:
  78:Core/Src/main.c ****                    HAL_MAX_DELAY); // separates transmit und receive, da hier
 224              		.loc 1 78 3 is_stmt 1 view .LVU61
 225 0022 0F4D     		ldr	r5, .L7+4
 226 0024 4FF0FF33 		mov	r3, #-1
 227 0028 3246     		mov	r2, r6
 228 002a 01A9     		add	r1, sp, #4
 229 002c 2846     		mov	r0, r5
 230 002e FFF7FEFF 		bl	HAL_SPI_Transmit
 231              	.LVL8:
ARM GAS  /tmp/ccTJbdVB.s 			page 11


  82:Core/Src/main.c ****   HAL_Delay(100);
 232              		.loc 1 82 3 view .LVU62
 233 0032 4FF0FF33 		mov	r3, #-1
 234 0036 0122     		movs	r2, #1
 235 0038 0DF10701 		add	r1, sp, #7
 236 003c 2846     		mov	r0, r5
 237 003e FFF7FEFF 		bl	HAL_SPI_Receive
 238              	.LVL9:
  83:Core/Src/main.c **** 
 239              		.loc 1 83 3 view .LVU63
 240 0042 6420     		movs	r0, #100
 241 0044 FFF7FEFF 		bl	HAL_Delay
 242              	.LVL10:
  85:Core/Src/main.c **** 
 243              		.loc 1 85 3 view .LVU64
 244 0048 0122     		movs	r2, #1
 245 004a 4FF48051 		mov	r1, #4096
 246 004e 2046     		mov	r0, r4
 247 0050 FFF7FEFF 		bl	HAL_GPIO_WritePin
 248              	.LVL11:
  87:Core/Src/main.c **** }
 249              		.loc 1 87 3 view .LVU65
  88:Core/Src/main.c **** 
 250              		.loc 1 88 1 is_stmt 0 view .LVU66
 251 0054 9DF80700 		ldrb	r0, [sp, #7]	@ zero_extendqisi2
 252 0058 02B0     		add	sp, sp, #8
 253              	.LCFI5:
 254              		.cfi_def_cfa_offset 16
 255              		@ sp needed
 256 005a 70BD     		pop	{r4, r5, r6, pc}
 257              	.L8:
 258              		.align	2
 259              	.L7:
 260 005c 000C0140 		.word	1073810432
 261 0060 00000000 		.word	hspi2
 262              		.cfi_endproc
 263              	.LFE65:
 265              		.section	.text.EEPROM_ReadStatus,"ax",%progbits
 266              		.align	1
 267              		.global	EEPROM_ReadStatus
 268              		.syntax unified
 269              		.thumb
 270              		.thumb_func
 272              	EEPROM_ReadStatus:
 273              	.LFB66:
  92:Core/Src/main.c ****   uint8_t instruction = EEPROM_INSTR_RDSR;
 274              		.loc 1 92 33 is_stmt 1 view -0
 275              		.cfi_startproc
 276              		@ args = 0, pretend = 0, frame = 8
 277              		@ frame_needed = 0, uses_anonymous_args = 0
 278 0000 30B5     		push	{r4, r5, lr}
 279              	.LCFI6:
 280              		.cfi_def_cfa_offset 12
 281              		.cfi_offset 4, -12
 282              		.cfi_offset 5, -8
 283              		.cfi_offset 14, -4
 284 0002 83B0     		sub	sp, sp, #12
ARM GAS  /tmp/ccTJbdVB.s 			page 12


 285              	.LCFI7:
 286              		.cfi_def_cfa_offset 24
  93:Core/Src/main.c ****   uint8_t status;
 287              		.loc 1 93 3 view .LVU68
  93:Core/Src/main.c ****   uint8_t status;
 288              		.loc 1 93 11 is_stmt 0 view .LVU69
 289 0004 0523     		movs	r3, #5
 290 0006 8DF80730 		strb	r3, [sp, #7]
  94:Core/Src/main.c **** 
 291              		.loc 1 94 3 is_stmt 1 view .LVU70
  96:Core/Src/main.c ****   HAL_SPI_Transmit(&hspi2, &instruction, 1, HAL_MAX_DELAY);
 292              		.loc 1 96 3 view .LVU71
 293 000a 114C     		ldr	r4, .L11
 294 000c 0022     		movs	r2, #0
 295 000e 4FF48051 		mov	r1, #4096
 296 0012 2046     		mov	r0, r4
 297 0014 FFF7FEFF 		bl	HAL_GPIO_WritePin
 298              	.LVL12:
  97:Core/Src/main.c ****   HAL_SPI_Receive(&hspi2, &status, 1, HAL_MAX_DELAY);
 299              		.loc 1 97 3 view .LVU72
 300 0018 0E4D     		ldr	r5, .L11+4
 301 001a 4FF0FF33 		mov	r3, #-1
 302 001e 0122     		movs	r2, #1
 303 0020 0DF10701 		add	r1, sp, #7
 304 0024 2846     		mov	r0, r5
 305 0026 FFF7FEFF 		bl	HAL_SPI_Transmit
 306              	.LVL13:
  98:Core/Src/main.c ****   EEPROM_CS_HIGH();
 307              		.loc 1 98 3 view .LVU73
 308 002a 4FF0FF33 		mov	r3, #-1
 309 002e 0122     		movs	r2, #1
 310 0030 0DF10601 		add	r1, sp, #6
 311 0034 2846     		mov	r0, r5
 312 0036 FFF7FEFF 		bl	HAL_SPI_Receive
 313              	.LVL14:
  99:Core/Src/main.c **** 
 314              		.loc 1 99 3 view .LVU74
 315 003a 0122     		movs	r2, #1
 316 003c 4FF48051 		mov	r1, #4096
 317 0040 2046     		mov	r0, r4
 318 0042 FFF7FEFF 		bl	HAL_GPIO_WritePin
 319              	.LVL15:
 101:Core/Src/main.c **** }
 320              		.loc 1 101 3 view .LVU75
 102:Core/Src/main.c **** void EEPROM_WriteByte(uint16_t addr, uint8_t counter) {
 321              		.loc 1 102 1 is_stmt 0 view .LVU76
 322 0046 9DF80600 		ldrb	r0, [sp, #6]	@ zero_extendqisi2
 323 004a 03B0     		add	sp, sp, #12
 324              	.LCFI8:
 325              		.cfi_def_cfa_offset 12
 326              		@ sp needed
 327 004c 30BD     		pop	{r4, r5, pc}
 328              	.L12:
 329 004e 00BF     		.align	2
 330              	.L11:
 331 0050 000C0140 		.word	1073810432
 332 0054 00000000 		.word	hspi2
ARM GAS  /tmp/ccTJbdVB.s 			page 13


 333              		.cfi_endproc
 334              	.LFE66:
 336              		.section	.text.EEPROM_WriteByte,"ax",%progbits
 337              		.align	1
 338              		.global	EEPROM_WriteByte
 339              		.syntax unified
 340              		.thumb
 341              		.thumb_func
 343              	EEPROM_WriteByte:
 344              	.LVL16:
 345              	.LFB67:
 103:Core/Src/main.c ****   uint8_t wren = EEPROM_INSTR_WREN;
 346              		.loc 1 103 55 is_stmt 1 view -0
 347              		.cfi_startproc
 348              		@ args = 0, pretend = 0, frame = 8
 349              		@ frame_needed = 0, uses_anonymous_args = 0
 103:Core/Src/main.c ****   uint8_t wren = EEPROM_INSTR_WREN;
 350              		.loc 1 103 55 is_stmt 0 view .LVU78
 351 0000 F0B5     		push	{r4, r5, r6, r7, lr}
 352              	.LCFI9:
 353              		.cfi_def_cfa_offset 20
 354              		.cfi_offset 4, -20
 355              		.cfi_offset 5, -16
 356              		.cfi_offset 6, -12
 357              		.cfi_offset 7, -8
 358              		.cfi_offset 14, -4
 359 0002 83B0     		sub	sp, sp, #12
 360              	.LCFI10:
 361              		.cfi_def_cfa_offset 32
 362 0004 0546     		mov	r5, r0
 363 0006 0E46     		mov	r6, r1
 104:Core/Src/main.c ****   EEPROM_CS_LOW();
 364              		.loc 1 104 3 is_stmt 1 view .LVU79
 104:Core/Src/main.c ****   EEPROM_CS_LOW();
 365              		.loc 1 104 11 is_stmt 0 view .LVU80
 366 0008 0623     		movs	r3, #6
 367 000a 8DF80730 		strb	r3, [sp, #7]
 105:Core/Src/main.c ****   HAL_SPI_Transmit(&hspi2, &wren, 1, HAL_MAX_DELAY);
 368              		.loc 1 105 3 is_stmt 1 view .LVU81
 369 000e 204C     		ldr	r4, .L17
 370 0010 0022     		movs	r2, #0
 371 0012 4FF48051 		mov	r1, #4096
 372              	.LVL17:
 105:Core/Src/main.c ****   HAL_SPI_Transmit(&hspi2, &wren, 1, HAL_MAX_DELAY);
 373              		.loc 1 105 3 is_stmt 0 view .LVU82
 374 0016 2046     		mov	r0, r4
 375              	.LVL18:
 105:Core/Src/main.c ****   HAL_SPI_Transmit(&hspi2, &wren, 1, HAL_MAX_DELAY);
 376              		.loc 1 105 3 view .LVU83
 377 0018 FFF7FEFF 		bl	HAL_GPIO_WritePin
 378              	.LVL19:
 106:Core/Src/main.c ****   EEPROM_CS_HIGH();
 379              		.loc 1 106 3 is_stmt 1 view .LVU84
 380 001c 1D4F     		ldr	r7, .L17+4
 381 001e 4FF0FF33 		mov	r3, #-1
 382 0022 0122     		movs	r2, #1
 383 0024 0DF10701 		add	r1, sp, #7
ARM GAS  /tmp/ccTJbdVB.s 			page 14


 384 0028 3846     		mov	r0, r7
 385 002a FFF7FEFF 		bl	HAL_SPI_Transmit
 386              	.LVL20:
 107:Core/Src/main.c **** 
 387              		.loc 1 107 3 view .LVU85
 388 002e 0122     		movs	r2, #1
 389 0030 4FF48051 		mov	r1, #4096
 390 0034 2046     		mov	r0, r4
 391 0036 FFF7FEFF 		bl	HAL_GPIO_WritePin
 392              	.LVL21:
 109:Core/Src/main.c **** 
 393              		.loc 1 109 3 view .LVU86
 394 003a 0A20     		movs	r0, #10
 395 003c FFF7FEFF 		bl	HAL_Delay
 396              	.LVL22:
 111:Core/Src/main.c ****   uint8_t msg[4];
 397              		.loc 1 111 3 view .LVU87
 112:Core/Src/main.c **** 
 398              		.loc 1 112 3 view .LVU88
 114:Core/Src/main.c ****   msg[1] = (addr >> 8) & 0xFF;
 399              		.loc 1 114 3 view .LVU89
 114:Core/Src/main.c ****   msg[1] = (addr >> 8) & 0xFF;
 400              		.loc 1 114 10 is_stmt 0 view .LVU90
 401 0040 0223     		movs	r3, #2
 402 0042 8DF80030 		strb	r3, [sp]
 115:Core/Src/main.c ****   msg[2] = addr & 0xFF;
 403              		.loc 1 115 3 is_stmt 1 view .LVU91
 115:Core/Src/main.c ****   msg[2] = addr & 0xFF;
 404              		.loc 1 115 10 is_stmt 0 view .LVU92
 405 0046 2B0A     		lsrs	r3, r5, #8
 406 0048 8DF80130 		strb	r3, [sp, #1]
 116:Core/Src/main.c ****   msg[3] = data;
 407              		.loc 1 116 3 is_stmt 1 view .LVU93
 116:Core/Src/main.c ****   msg[3] = data;
 408              		.loc 1 116 10 is_stmt 0 view .LVU94
 409 004c 8DF80250 		strb	r5, [sp, #2]
 117:Core/Src/main.c **** 
 410              		.loc 1 117 3 is_stmt 1 view .LVU95
 117:Core/Src/main.c **** 
 411              		.loc 1 117 10 is_stmt 0 view .LVU96
 412 0050 8DF80360 		strb	r6, [sp, #3]
 119:Core/Src/main.c ****   HAL_SPI_Transmit(&hspi2, msg, 4, HAL_MAX_DELAY);
 413              		.loc 1 119 3 is_stmt 1 view .LVU97
 414 0054 0022     		movs	r2, #0
 415 0056 4FF48051 		mov	r1, #4096
 416 005a 2046     		mov	r0, r4
 417 005c FFF7FEFF 		bl	HAL_GPIO_WritePin
 418              	.LVL23:
 120:Core/Src/main.c ****   EEPROM_CS_HIGH();
 419              		.loc 1 120 3 view .LVU98
 420 0060 4FF0FF33 		mov	r3, #-1
 421 0064 0422     		movs	r2, #4
 422 0066 6946     		mov	r1, sp
 423 0068 3846     		mov	r0, r7
 424 006a FFF7FEFF 		bl	HAL_SPI_Transmit
 425              	.LVL24:
 121:Core/Src/main.c **** 
ARM GAS  /tmp/ccTJbdVB.s 			page 15


 426              		.loc 1 121 3 view .LVU99
 427 006e 0122     		movs	r2, #1
 428 0070 4FF48051 		mov	r1, #4096
 429 0074 2046     		mov	r0, r4
 430 0076 FFF7FEFF 		bl	HAL_GPIO_WritePin
 431              	.LVL25:
 124:Core/Src/main.c ****   {
 432              		.loc 1 124 3 view .LVU100
 124:Core/Src/main.c ****   {
 433              		.loc 1 124 9 is_stmt 0 view .LVU101
 434 007a 02E0     		b	.L14
 435              	.L15:
 128:Core/Src/main.c ****   }
 436              		.loc 1 128 5 is_stmt 1 view .LVU102
 437 007c 0120     		movs	r0, #1
 438 007e FFF7FEFF 		bl	HAL_Delay
 439              	.LVL26:
 440              	.L14:
 124:Core/Src/main.c ****   {
 441              		.loc 1 124 10 view .LVU103
 442 0082 FFF7FEFF 		bl	EEPROM_ReadStatus
 443              	.LVL27:
 124:Core/Src/main.c ****   {
 444              		.loc 1 124 10 is_stmt 0 discriminator 1 view .LVU104
 445 0086 10F0010F 		tst	r0, #1
 446 008a F7D1     		bne	.L15
 130:Core/Src/main.c **** /* USER CODE END 0 */
 447              		.loc 1 130 1 view .LVU105
 448 008c 03B0     		add	sp, sp, #12
 449              	.LCFI11:
 450              		.cfi_def_cfa_offset 20
 451              		@ sp needed
 452 008e F0BD     		pop	{r4, r5, r6, r7, pc}
 453              	.LVL28:
 454              	.L18:
 130:Core/Src/main.c **** /* USER CODE END 0 */
 455              		.loc 1 130 1 view .LVU106
 456              		.align	2
 457              	.L17:
 458 0090 000C0140 		.word	1073810432
 459 0094 00000000 		.word	hspi2
 460              		.cfi_endproc
 461              	.LFE67:
 463              		.section	.text.Error_Handler,"ax",%progbits
 464              		.align	1
 465              		.global	Error_Handler
 466              		.syntax unified
 467              		.thumb
 468              		.thumb_func
 470              	Error_Handler:
 471              	.LFB72:
 330:Core/Src/main.c **** 
 331:Core/Src/main.c **** /* USER CODE BEGIN 4 */
 332:Core/Src/main.c **** 
 333:Core/Src/main.c **** /* USER CODE END 4 */
 334:Core/Src/main.c **** 
 335:Core/Src/main.c **** /**
ARM GAS  /tmp/ccTJbdVB.s 			page 16


 336:Core/Src/main.c ****  * @brief  This function is executed in case of error occurrence.
 337:Core/Src/main.c ****  * @retval None
 338:Core/Src/main.c ****  */
 339:Core/Src/main.c **** void Error_Handler(void) {
 472              		.loc 1 339 26 is_stmt 1 view -0
 473              		.cfi_startproc
 474              		@ Volatile: function does not return.
 475              		@ args = 0, pretend = 0, frame = 0
 476              		@ frame_needed = 0, uses_anonymous_args = 0
 477              		@ link register save eliminated.
 340:Core/Src/main.c ****   /* USER CODE BEGIN Error_Handler_Debug */
 341:Core/Src/main.c ****   /* User can add his own implementation to report the HAL error return state
 342:Core/Src/main.c ****    */
 343:Core/Src/main.c ****   __disable_irq();
 478              		.loc 1 343 3 view .LVU108
 479              	.LBB7:
 480              	.LBI7:
 481              		.file 2 "Drivers/CMSIS/Include/cmsis_gcc.h"
   1:Drivers/CMSIS/Include/cmsis_gcc.h **** /**************************************************************************//**
   2:Drivers/CMSIS/Include/cmsis_gcc.h ****  * @file     cmsis_gcc.h
   3:Drivers/CMSIS/Include/cmsis_gcc.h ****  * @brief    CMSIS compiler GCC header file
   4:Drivers/CMSIS/Include/cmsis_gcc.h ****  * @version  V5.0.4
   5:Drivers/CMSIS/Include/cmsis_gcc.h ****  * @date     09. April 2018
   6:Drivers/CMSIS/Include/cmsis_gcc.h ****  ******************************************************************************/
   7:Drivers/CMSIS/Include/cmsis_gcc.h **** /*
   8:Drivers/CMSIS/Include/cmsis_gcc.h ****  * Copyright (c) 2009-2018 Arm Limited. All rights reserved.
   9:Drivers/CMSIS/Include/cmsis_gcc.h ****  *
  10:Drivers/CMSIS/Include/cmsis_gcc.h ****  * SPDX-License-Identifier: Apache-2.0
  11:Drivers/CMSIS/Include/cmsis_gcc.h ****  *
  12:Drivers/CMSIS/Include/cmsis_gcc.h ****  * Licensed under the Apache License, Version 2.0 (the License); you may
  13:Drivers/CMSIS/Include/cmsis_gcc.h ****  * not use this file except in compliance with the License.
  14:Drivers/CMSIS/Include/cmsis_gcc.h ****  * You may obtain a copy of the License at
  15:Drivers/CMSIS/Include/cmsis_gcc.h ****  *
  16:Drivers/CMSIS/Include/cmsis_gcc.h ****  * www.apache.org/licenses/LICENSE-2.0
  17:Drivers/CMSIS/Include/cmsis_gcc.h ****  *
  18:Drivers/CMSIS/Include/cmsis_gcc.h ****  * Unless required by applicable law or agreed to in writing, software
  19:Drivers/CMSIS/Include/cmsis_gcc.h ****  * distributed under the License is distributed on an AS IS BASIS, WITHOUT
  20:Drivers/CMSIS/Include/cmsis_gcc.h ****  * WARRANTIES OR CONDITIONS OF ANY KIND, either express or implied.
  21:Drivers/CMSIS/Include/cmsis_gcc.h ****  * See the License for the specific language governing permissions and
  22:Drivers/CMSIS/Include/cmsis_gcc.h ****  * limitations under the License.
  23:Drivers/CMSIS/Include/cmsis_gcc.h ****  */
  24:Drivers/CMSIS/Include/cmsis_gcc.h **** 
  25:Drivers/CMSIS/Include/cmsis_gcc.h **** #ifndef __CMSIS_GCC_H
  26:Drivers/CMSIS/Include/cmsis_gcc.h **** #define __CMSIS_GCC_H
  27:Drivers/CMSIS/Include/cmsis_gcc.h **** 
  28:Drivers/CMSIS/Include/cmsis_gcc.h **** /* ignore some GCC warnings */
  29:Drivers/CMSIS/Include/cmsis_gcc.h **** #pragma GCC diagnostic push
  30:Drivers/CMSIS/Include/cmsis_gcc.h **** #pragma GCC diagnostic ignored "-Wsign-conversion"
  31:Drivers/CMSIS/Include/cmsis_gcc.h **** #pragma GCC diagnostic ignored "-Wconversion"
  32:Drivers/CMSIS/Include/cmsis_gcc.h **** #pragma GCC diagnostic ignored "-Wunused-parameter"
  33:Drivers/CMSIS/Include/cmsis_gcc.h **** 
  34:Drivers/CMSIS/Include/cmsis_gcc.h **** /* Fallback for __has_builtin */
  35:Drivers/CMSIS/Include/cmsis_gcc.h **** #ifndef __has_builtin
  36:Drivers/CMSIS/Include/cmsis_gcc.h ****   #define __has_builtin(x) (0)
  37:Drivers/CMSIS/Include/cmsis_gcc.h **** #endif
  38:Drivers/CMSIS/Include/cmsis_gcc.h **** 
  39:Drivers/CMSIS/Include/cmsis_gcc.h **** /* CMSIS compiler specific defines */
ARM GAS  /tmp/ccTJbdVB.s 			page 17


  40:Drivers/CMSIS/Include/cmsis_gcc.h **** #ifndef   __ASM
  41:Drivers/CMSIS/Include/cmsis_gcc.h ****   #define __ASM                                  __asm
  42:Drivers/CMSIS/Include/cmsis_gcc.h **** #endif
  43:Drivers/CMSIS/Include/cmsis_gcc.h **** #ifndef   __INLINE
  44:Drivers/CMSIS/Include/cmsis_gcc.h ****   #define __INLINE                               inline
  45:Drivers/CMSIS/Include/cmsis_gcc.h **** #endif
  46:Drivers/CMSIS/Include/cmsis_gcc.h **** #ifndef   __STATIC_INLINE
  47:Drivers/CMSIS/Include/cmsis_gcc.h ****   #define __STATIC_INLINE                        static inline
  48:Drivers/CMSIS/Include/cmsis_gcc.h **** #endif
  49:Drivers/CMSIS/Include/cmsis_gcc.h **** #ifndef   __STATIC_FORCEINLINE                 
  50:Drivers/CMSIS/Include/cmsis_gcc.h ****   #define __STATIC_FORCEINLINE                   __attribute__((always_inline)) static inline
  51:Drivers/CMSIS/Include/cmsis_gcc.h **** #endif                                           
  52:Drivers/CMSIS/Include/cmsis_gcc.h **** #ifndef   __NO_RETURN
  53:Drivers/CMSIS/Include/cmsis_gcc.h ****   #define __NO_RETURN                            __attribute__((__noreturn__))
  54:Drivers/CMSIS/Include/cmsis_gcc.h **** #endif
  55:Drivers/CMSIS/Include/cmsis_gcc.h **** #ifndef   __USED
  56:Drivers/CMSIS/Include/cmsis_gcc.h ****   #define __USED                                 __attribute__((used))
  57:Drivers/CMSIS/Include/cmsis_gcc.h **** #endif
  58:Drivers/CMSIS/Include/cmsis_gcc.h **** #ifndef   __WEAK
  59:Drivers/CMSIS/Include/cmsis_gcc.h ****   #define __WEAK                                 __attribute__((weak))
  60:Drivers/CMSIS/Include/cmsis_gcc.h **** #endif
  61:Drivers/CMSIS/Include/cmsis_gcc.h **** #ifndef   __PACKED
  62:Drivers/CMSIS/Include/cmsis_gcc.h ****   #define __PACKED                               __attribute__((packed, aligned(1)))
  63:Drivers/CMSIS/Include/cmsis_gcc.h **** #endif
  64:Drivers/CMSIS/Include/cmsis_gcc.h **** #ifndef   __PACKED_STRUCT
  65:Drivers/CMSIS/Include/cmsis_gcc.h ****   #define __PACKED_STRUCT                        struct __attribute__((packed, aligned(1)))
  66:Drivers/CMSIS/Include/cmsis_gcc.h **** #endif
  67:Drivers/CMSIS/Include/cmsis_gcc.h **** #ifndef   __PACKED_UNION
  68:Drivers/CMSIS/Include/cmsis_gcc.h ****   #define __PACKED_UNION                         union __attribute__((packed, aligned(1)))
  69:Drivers/CMSIS/Include/cmsis_gcc.h **** #endif
  70:Drivers/CMSIS/Include/cmsis_gcc.h **** #ifndef   __UNALIGNED_UINT32        /* deprecated */
  71:Drivers/CMSIS/Include/cmsis_gcc.h ****   #pragma GCC diagnostic push
  72:Drivers/CMSIS/Include/cmsis_gcc.h ****   #pragma GCC diagnostic ignored "-Wpacked"
  73:Drivers/CMSIS/Include/cmsis_gcc.h ****   #pragma GCC diagnostic ignored "-Wattributes"
  74:Drivers/CMSIS/Include/cmsis_gcc.h ****   struct __attribute__((packed)) T_UINT32 { uint32_t v; };
  75:Drivers/CMSIS/Include/cmsis_gcc.h ****   #pragma GCC diagnostic pop
  76:Drivers/CMSIS/Include/cmsis_gcc.h ****   #define __UNALIGNED_UINT32(x)                  (((struct T_UINT32 *)(x))->v)
  77:Drivers/CMSIS/Include/cmsis_gcc.h **** #endif
  78:Drivers/CMSIS/Include/cmsis_gcc.h **** #ifndef   __UNALIGNED_UINT16_WRITE
  79:Drivers/CMSIS/Include/cmsis_gcc.h ****   #pragma GCC diagnostic push
  80:Drivers/CMSIS/Include/cmsis_gcc.h ****   #pragma GCC diagnostic ignored "-Wpacked"
  81:Drivers/CMSIS/Include/cmsis_gcc.h ****   #pragma GCC diagnostic ignored "-Wattributes"
  82:Drivers/CMSIS/Include/cmsis_gcc.h ****   __PACKED_STRUCT T_UINT16_WRITE { uint16_t v; };
  83:Drivers/CMSIS/Include/cmsis_gcc.h ****   #pragma GCC diagnostic pop
  84:Drivers/CMSIS/Include/cmsis_gcc.h ****   #define __UNALIGNED_UINT16_WRITE(addr, val)    (void)((((struct T_UINT16_WRITE *)(void *)(addr))-
  85:Drivers/CMSIS/Include/cmsis_gcc.h **** #endif
  86:Drivers/CMSIS/Include/cmsis_gcc.h **** #ifndef   __UNALIGNED_UINT16_READ
  87:Drivers/CMSIS/Include/cmsis_gcc.h ****   #pragma GCC diagnostic push
  88:Drivers/CMSIS/Include/cmsis_gcc.h ****   #pragma GCC diagnostic ignored "-Wpacked"
  89:Drivers/CMSIS/Include/cmsis_gcc.h ****   #pragma GCC diagnostic ignored "-Wattributes"
  90:Drivers/CMSIS/Include/cmsis_gcc.h ****   __PACKED_STRUCT T_UINT16_READ { uint16_t v; };
  91:Drivers/CMSIS/Include/cmsis_gcc.h ****   #pragma GCC diagnostic pop
  92:Drivers/CMSIS/Include/cmsis_gcc.h ****   #define __UNALIGNED_UINT16_READ(addr)          (((const struct T_UINT16_READ *)(const void *)(add
  93:Drivers/CMSIS/Include/cmsis_gcc.h **** #endif
  94:Drivers/CMSIS/Include/cmsis_gcc.h **** #ifndef   __UNALIGNED_UINT32_WRITE
  95:Drivers/CMSIS/Include/cmsis_gcc.h ****   #pragma GCC diagnostic push
  96:Drivers/CMSIS/Include/cmsis_gcc.h ****   #pragma GCC diagnostic ignored "-Wpacked"
ARM GAS  /tmp/ccTJbdVB.s 			page 18


  97:Drivers/CMSIS/Include/cmsis_gcc.h ****   #pragma GCC diagnostic ignored "-Wattributes"
  98:Drivers/CMSIS/Include/cmsis_gcc.h ****   __PACKED_STRUCT T_UINT32_WRITE { uint32_t v; };
  99:Drivers/CMSIS/Include/cmsis_gcc.h ****   #pragma GCC diagnostic pop
 100:Drivers/CMSIS/Include/cmsis_gcc.h ****   #define __UNALIGNED_UINT32_WRITE(addr, val)    (void)((((struct T_UINT32_WRITE *)(void *)(addr))-
 101:Drivers/CMSIS/Include/cmsis_gcc.h **** #endif
 102:Drivers/CMSIS/Include/cmsis_gcc.h **** #ifndef   __UNALIGNED_UINT32_READ
 103:Drivers/CMSIS/Include/cmsis_gcc.h ****   #pragma GCC diagnostic push
 104:Drivers/CMSIS/Include/cmsis_gcc.h ****   #pragma GCC diagnostic ignored "-Wpacked"
 105:Drivers/CMSIS/Include/cmsis_gcc.h ****   #pragma GCC diagnostic ignored "-Wattributes"
 106:Drivers/CMSIS/Include/cmsis_gcc.h ****   __PACKED_STRUCT T_UINT32_READ { uint32_t v; };
 107:Drivers/CMSIS/Include/cmsis_gcc.h ****   #pragma GCC diagnostic pop
 108:Drivers/CMSIS/Include/cmsis_gcc.h ****   #define __UNALIGNED_UINT32_READ(addr)          (((const struct T_UINT32_READ *)(const void *)(add
 109:Drivers/CMSIS/Include/cmsis_gcc.h **** #endif
 110:Drivers/CMSIS/Include/cmsis_gcc.h **** #ifndef   __ALIGNED
 111:Drivers/CMSIS/Include/cmsis_gcc.h ****   #define __ALIGNED(x)                           __attribute__((aligned(x)))
 112:Drivers/CMSIS/Include/cmsis_gcc.h **** #endif
 113:Drivers/CMSIS/Include/cmsis_gcc.h **** #ifndef   __RESTRICT
 114:Drivers/CMSIS/Include/cmsis_gcc.h ****   #define __RESTRICT                             __restrict
 115:Drivers/CMSIS/Include/cmsis_gcc.h **** #endif
 116:Drivers/CMSIS/Include/cmsis_gcc.h **** 
 117:Drivers/CMSIS/Include/cmsis_gcc.h **** 
 118:Drivers/CMSIS/Include/cmsis_gcc.h **** /* ###########################  Core Function Access  ########################### */
 119:Drivers/CMSIS/Include/cmsis_gcc.h **** /** \ingroup  CMSIS_Core_FunctionInterface
 120:Drivers/CMSIS/Include/cmsis_gcc.h ****     \defgroup CMSIS_Core_RegAccFunctions CMSIS Core Register Access Functions
 121:Drivers/CMSIS/Include/cmsis_gcc.h ****   @{
 122:Drivers/CMSIS/Include/cmsis_gcc.h ****  */
 123:Drivers/CMSIS/Include/cmsis_gcc.h **** 
 124:Drivers/CMSIS/Include/cmsis_gcc.h **** /**
 125:Drivers/CMSIS/Include/cmsis_gcc.h ****   \brief   Enable IRQ Interrupts
 126:Drivers/CMSIS/Include/cmsis_gcc.h ****   \details Enables IRQ interrupts by clearing the I-bit in the CPSR.
 127:Drivers/CMSIS/Include/cmsis_gcc.h ****            Can only be executed in Privileged modes.
 128:Drivers/CMSIS/Include/cmsis_gcc.h ****  */
 129:Drivers/CMSIS/Include/cmsis_gcc.h **** __STATIC_FORCEINLINE void __enable_irq(void)
 130:Drivers/CMSIS/Include/cmsis_gcc.h **** {
 131:Drivers/CMSIS/Include/cmsis_gcc.h ****   __ASM volatile ("cpsie i" : : : "memory");
 132:Drivers/CMSIS/Include/cmsis_gcc.h **** }
 133:Drivers/CMSIS/Include/cmsis_gcc.h **** 
 134:Drivers/CMSIS/Include/cmsis_gcc.h **** 
 135:Drivers/CMSIS/Include/cmsis_gcc.h **** /**
 136:Drivers/CMSIS/Include/cmsis_gcc.h ****   \brief   Disable IRQ Interrupts
 137:Drivers/CMSIS/Include/cmsis_gcc.h ****   \details Disables IRQ interrupts by setting the I-bit in the CPSR.
 138:Drivers/CMSIS/Include/cmsis_gcc.h ****            Can only be executed in Privileged modes.
 139:Drivers/CMSIS/Include/cmsis_gcc.h ****  */
 140:Drivers/CMSIS/Include/cmsis_gcc.h **** __STATIC_FORCEINLINE void __disable_irq(void)
 482              		.loc 2 140 27 view .LVU109
 483              	.LBB8:
 141:Drivers/CMSIS/Include/cmsis_gcc.h **** {
 142:Drivers/CMSIS/Include/cmsis_gcc.h ****   __ASM volatile ("cpsid i" : : : "memory");
 484              		.loc 2 142 3 view .LVU110
 485              		.syntax unified
 486              	@ 142 "Drivers/CMSIS/Include/cmsis_gcc.h" 1
 487 0000 72B6     		cpsid i
 488              	@ 0 "" 2
 489              		.thumb
 490              		.syntax unified
 491              	.L20:
 492              	.LBE8:
ARM GAS  /tmp/ccTJbdVB.s 			page 19


 493              	.LBE7:
 344:Core/Src/main.c ****   while (1) {
 494              		.loc 1 344 3 view .LVU111
 345:Core/Src/main.c ****   }
 495              		.loc 1 345 3 view .LVU112
 344:Core/Src/main.c ****   while (1) {
 496              		.loc 1 344 9 view .LVU113
 497 0002 FEE7     		b	.L20
 498              		.cfi_endproc
 499              	.LFE72:
 501              		.section	.text.MX_SPI2_Init,"ax",%progbits
 502              		.align	1
 503              		.syntax unified
 504              		.thumb
 505              		.thumb_func
 507              	MX_SPI2_Init:
 508              	.LFB70:
 254:Core/Src/main.c **** 
 509              		.loc 1 254 32 view -0
 510              		.cfi_startproc
 511              		@ args = 0, pretend = 0, frame = 0
 512              		@ frame_needed = 0, uses_anonymous_args = 0
 513 0000 08B5     		push	{r3, lr}
 514              	.LCFI12:
 515              		.cfi_def_cfa_offset 8
 516              		.cfi_offset 3, -8
 517              		.cfi_offset 14, -4
 264:Core/Src/main.c ****   hspi2.Init.Mode = SPI_MODE_MASTER;
 518              		.loc 1 264 3 view .LVU115
 264:Core/Src/main.c ****   hspi2.Init.Mode = SPI_MODE_MASTER;
 519              		.loc 1 264 18 is_stmt 0 view .LVU116
 520 0002 0D48     		ldr	r0, .L25
 521 0004 0D4B     		ldr	r3, .L25+4
 522 0006 0360     		str	r3, [r0]
 265:Core/Src/main.c ****   hspi2.Init.Direction = SPI_DIRECTION_2LINES;
 523              		.loc 1 265 3 is_stmt 1 view .LVU117
 265:Core/Src/main.c ****   hspi2.Init.Direction = SPI_DIRECTION_2LINES;
 524              		.loc 1 265 19 is_stmt 0 view .LVU118
 525 0008 4FF48273 		mov	r3, #260
 526 000c 4360     		str	r3, [r0, #4]
 266:Core/Src/main.c ****   hspi2.Init.DataSize = SPI_DATASIZE_8BIT;
 527              		.loc 1 266 3 is_stmt 1 view .LVU119
 266:Core/Src/main.c ****   hspi2.Init.DataSize = SPI_DATASIZE_8BIT;
 528              		.loc 1 266 24 is_stmt 0 view .LVU120
 529 000e 0023     		movs	r3, #0
 530 0010 8360     		str	r3, [r0, #8]
 267:Core/Src/main.c ****   hspi2.Init.CLKPolarity = SPI_POLARITY_LOW;
 531              		.loc 1 267 3 is_stmt 1 view .LVU121
 267:Core/Src/main.c ****   hspi2.Init.CLKPolarity = SPI_POLARITY_LOW;
 532              		.loc 1 267 23 is_stmt 0 view .LVU122
 533 0012 C360     		str	r3, [r0, #12]
 268:Core/Src/main.c ****   hspi2.Init.CLKPhase = SPI_PHASE_1EDGE;
 534              		.loc 1 268 3 is_stmt 1 view .LVU123
 268:Core/Src/main.c ****   hspi2.Init.CLKPhase = SPI_PHASE_1EDGE;
 535              		.loc 1 268 26 is_stmt 0 view .LVU124
 536 0014 0361     		str	r3, [r0, #16]
 269:Core/Src/main.c ****   hspi2.Init.NSS = SPI_NSS_SOFT;
ARM GAS  /tmp/ccTJbdVB.s 			page 20


 537              		.loc 1 269 3 is_stmt 1 view .LVU125
 269:Core/Src/main.c ****   hspi2.Init.NSS = SPI_NSS_SOFT;
 538              		.loc 1 269 23 is_stmt 0 view .LVU126
 539 0016 4361     		str	r3, [r0, #20]
 270:Core/Src/main.c ****   hspi2.Init.BaudRatePrescaler = SPI_BAUDRATEPRESCALER_2;
 540              		.loc 1 270 3 is_stmt 1 view .LVU127
 270:Core/Src/main.c ****   hspi2.Init.BaudRatePrescaler = SPI_BAUDRATEPRESCALER_2;
 541              		.loc 1 270 18 is_stmt 0 view .LVU128
 542 0018 4FF40072 		mov	r2, #512
 543 001c 8261     		str	r2, [r0, #24]
 271:Core/Src/main.c ****   hspi2.Init.FirstBit = SPI_FIRSTBIT_MSB;
 544              		.loc 1 271 3 is_stmt 1 view .LVU129
 271:Core/Src/main.c ****   hspi2.Init.FirstBit = SPI_FIRSTBIT_MSB;
 545              		.loc 1 271 32 is_stmt 0 view .LVU130
 546 001e C361     		str	r3, [r0, #28]
 272:Core/Src/main.c ****   hspi2.Init.TIMode = SPI_TIMODE_DISABLE;
 547              		.loc 1 272 3 is_stmt 1 view .LVU131
 272:Core/Src/main.c ****   hspi2.Init.TIMode = SPI_TIMODE_DISABLE;
 548              		.loc 1 272 23 is_stmt 0 view .LVU132
 549 0020 0362     		str	r3, [r0, #32]
 273:Core/Src/main.c ****   hspi2.Init.CRCCalculation = SPI_CRCCALCULATION_DISABLE;
 550              		.loc 1 273 3 is_stmt 1 view .LVU133
 273:Core/Src/main.c ****   hspi2.Init.CRCCalculation = SPI_CRCCALCULATION_DISABLE;
 551              		.loc 1 273 21 is_stmt 0 view .LVU134
 552 0022 4362     		str	r3, [r0, #36]
 274:Core/Src/main.c ****   hspi2.Init.CRCPolynomial = 10;
 553              		.loc 1 274 3 is_stmt 1 view .LVU135
 274:Core/Src/main.c ****   hspi2.Init.CRCPolynomial = 10;
 554              		.loc 1 274 29 is_stmt 0 view .LVU136
 555 0024 8362     		str	r3, [r0, #40]
 275:Core/Src/main.c ****   if (HAL_SPI_Init(&hspi2) != HAL_OK) {
 556              		.loc 1 275 3 is_stmt 1 view .LVU137
 275:Core/Src/main.c ****   if (HAL_SPI_Init(&hspi2) != HAL_OK) {
 557              		.loc 1 275 28 is_stmt 0 view .LVU138
 558 0026 0A23     		movs	r3, #10
 559 0028 C362     		str	r3, [r0, #44]
 276:Core/Src/main.c ****     Error_Handler();
 560              		.loc 1 276 3 is_stmt 1 view .LVU139
 276:Core/Src/main.c ****     Error_Handler();
 561              		.loc 1 276 7 is_stmt 0 view .LVU140
 562 002a FFF7FEFF 		bl	HAL_SPI_Init
 563              	.LVL29:
 276:Core/Src/main.c ****     Error_Handler();
 564              		.loc 1 276 6 discriminator 1 view .LVU141
 565 002e 00B9     		cbnz	r0, .L24
 282:Core/Src/main.c **** 
 566              		.loc 1 282 1 view .LVU142
 567 0030 08BD     		pop	{r3, pc}
 568              	.L24:
 277:Core/Src/main.c ****   }
 569              		.loc 1 277 5 is_stmt 1 view .LVU143
 570 0032 FFF7FEFF 		bl	Error_Handler
 571              	.LVL30:
 572              	.L26:
 573 0036 00BF     		.align	2
 574              	.L25:
 575 0038 00000000 		.word	hspi2
ARM GAS  /tmp/ccTJbdVB.s 			page 21


 576 003c 00380040 		.word	1073756160
 577              		.cfi_endproc
 578              	.LFE70:
 580              		.section	.text.SystemClock_Config,"ax",%progbits
 581              		.align	1
 582              		.global	SystemClock_Config
 583              		.syntax unified
 584              		.thumb
 585              		.thumb_func
 587              	SystemClock_Config:
 588              	.LFB69:
 220:Core/Src/main.c ****   RCC_OscInitTypeDef RCC_OscInitStruct = {0};
 589              		.loc 1 220 31 view -0
 590              		.cfi_startproc
 591              		@ args = 0, pretend = 0, frame = 64
 592              		@ frame_needed = 0, uses_anonymous_args = 0
 593 0000 00B5     		push	{lr}
 594              	.LCFI13:
 595              		.cfi_def_cfa_offset 4
 596              		.cfi_offset 14, -4
 597 0002 91B0     		sub	sp, sp, #68
 598              	.LCFI14:
 599              		.cfi_def_cfa_offset 72
 221:Core/Src/main.c ****   RCC_ClkInitTypeDef RCC_ClkInitStruct = {0};
 600              		.loc 1 221 3 view .LVU145
 221:Core/Src/main.c ****   RCC_ClkInitTypeDef RCC_ClkInitStruct = {0};
 601              		.loc 1 221 22 is_stmt 0 view .LVU146
 602 0004 2822     		movs	r2, #40
 603 0006 0021     		movs	r1, #0
 604 0008 06A8     		add	r0, sp, #24
 605 000a FFF7FEFF 		bl	memset
 606              	.LVL31:
 222:Core/Src/main.c **** 
 607              		.loc 1 222 3 is_stmt 1 view .LVU147
 222:Core/Src/main.c **** 
 608              		.loc 1 222 22 is_stmt 0 view .LVU148
 609 000e 0023     		movs	r3, #0
 610 0010 0193     		str	r3, [sp, #4]
 611 0012 0293     		str	r3, [sp, #8]
 612 0014 0393     		str	r3, [sp, #12]
 613 0016 0493     		str	r3, [sp, #16]
 614 0018 0593     		str	r3, [sp, #20]
 227:Core/Src/main.c ****   RCC_OscInitStruct.HSIState = RCC_HSI_ON;
 615              		.loc 1 227 3 is_stmt 1 view .LVU149
 227:Core/Src/main.c ****   RCC_OscInitStruct.HSIState = RCC_HSI_ON;
 616              		.loc 1 227 36 is_stmt 0 view .LVU150
 617 001a 0223     		movs	r3, #2
 618 001c 0693     		str	r3, [sp, #24]
 228:Core/Src/main.c ****   RCC_OscInitStruct.HSICalibrationValue = RCC_HSICALIBRATION_DEFAULT;
 619              		.loc 1 228 3 is_stmt 1 view .LVU151
 228:Core/Src/main.c ****   RCC_OscInitStruct.HSICalibrationValue = RCC_HSICALIBRATION_DEFAULT;
 620              		.loc 1 228 30 is_stmt 0 view .LVU152
 621 001e 0123     		movs	r3, #1
 622 0020 0A93     		str	r3, [sp, #40]
 229:Core/Src/main.c ****   RCC_OscInitStruct.PLL.PLLState = RCC_PLL_NONE;
 623              		.loc 1 229 3 is_stmt 1 view .LVU153
 229:Core/Src/main.c ****   RCC_OscInitStruct.PLL.PLLState = RCC_PLL_NONE;
ARM GAS  /tmp/ccTJbdVB.s 			page 22


 624              		.loc 1 229 41 is_stmt 0 view .LVU154
 625 0022 1023     		movs	r3, #16
 626 0024 0B93     		str	r3, [sp, #44]
 230:Core/Src/main.c ****   if (HAL_RCC_OscConfig(&RCC_OscInitStruct) != HAL_OK) {
 627              		.loc 1 230 3 is_stmt 1 view .LVU155
 231:Core/Src/main.c ****     Error_Handler();
 628              		.loc 1 231 3 view .LVU156
 231:Core/Src/main.c ****     Error_Handler();
 629              		.loc 1 231 7 is_stmt 0 view .LVU157
 630 0026 06A8     		add	r0, sp, #24
 631 0028 FFF7FEFF 		bl	HAL_RCC_OscConfig
 632              	.LVL32:
 231:Core/Src/main.c ****     Error_Handler();
 633              		.loc 1 231 6 discriminator 1 view .LVU158
 634 002c 68B9     		cbnz	r0, .L31
 237:Core/Src/main.c ****                                 RCC_CLOCKTYPE_PCLK1 | RCC_CLOCKTYPE_PCLK2;
 635              		.loc 1 237 3 is_stmt 1 view .LVU159
 237:Core/Src/main.c ****                                 RCC_CLOCKTYPE_PCLK1 | RCC_CLOCKTYPE_PCLK2;
 636              		.loc 1 237 31 is_stmt 0 view .LVU160
 637 002e 0F23     		movs	r3, #15
 638 0030 0193     		str	r3, [sp, #4]
 239:Core/Src/main.c ****   RCC_ClkInitStruct.AHBCLKDivider = RCC_SYSCLK_DIV1;
 639              		.loc 1 239 3 is_stmt 1 view .LVU161
 239:Core/Src/main.c ****   RCC_ClkInitStruct.AHBCLKDivider = RCC_SYSCLK_DIV1;
 640              		.loc 1 239 34 is_stmt 0 view .LVU162
 641 0032 0021     		movs	r1, #0
 642 0034 0291     		str	r1, [sp, #8]
 240:Core/Src/main.c ****   RCC_ClkInitStruct.APB1CLKDivider = RCC_HCLK_DIV1;
 643              		.loc 1 240 3 is_stmt 1 view .LVU163
 240:Core/Src/main.c ****   RCC_ClkInitStruct.APB1CLKDivider = RCC_HCLK_DIV1;
 644              		.loc 1 240 35 is_stmt 0 view .LVU164
 645 0036 0391     		str	r1, [sp, #12]
 241:Core/Src/main.c ****   RCC_ClkInitStruct.APB2CLKDivider = RCC_HCLK_DIV1;
 646              		.loc 1 241 3 is_stmt 1 view .LVU165
 241:Core/Src/main.c ****   RCC_ClkInitStruct.APB2CLKDivider = RCC_HCLK_DIV1;
 647              		.loc 1 241 36 is_stmt 0 view .LVU166
 648 0038 0491     		str	r1, [sp, #16]
 242:Core/Src/main.c **** 
 649              		.loc 1 242 3 is_stmt 1 view .LVU167
 242:Core/Src/main.c **** 
 650              		.loc 1 242 36 is_stmt 0 view .LVU168
 651 003a 0591     		str	r1, [sp, #20]
 244:Core/Src/main.c ****     Error_Handler();
 652              		.loc 1 244 3 is_stmt 1 view .LVU169
 244:Core/Src/main.c ****     Error_Handler();
 653              		.loc 1 244 7 is_stmt 0 view .LVU170
 654 003c 01A8     		add	r0, sp, #4
 655 003e FFF7FEFF 		bl	HAL_RCC_ClockConfig
 656              	.LVL33:
 244:Core/Src/main.c ****     Error_Handler();
 657              		.loc 1 244 6 discriminator 1 view .LVU171
 658 0042 20B9     		cbnz	r0, .L32
 247:Core/Src/main.c **** 
 659              		.loc 1 247 1 view .LVU172
 660 0044 11B0     		add	sp, sp, #68
 661              	.LCFI15:
 662              		.cfi_remember_state
ARM GAS  /tmp/ccTJbdVB.s 			page 23


 663              		.cfi_def_cfa_offset 4
 664              		@ sp needed
 665 0046 5DF804FB 		ldr	pc, [sp], #4
 666              	.L31:
 667              	.LCFI16:
 668              		.cfi_restore_state
 232:Core/Src/main.c ****   }
 669              		.loc 1 232 5 is_stmt 1 view .LVU173
 670 004a FFF7FEFF 		bl	Error_Handler
 671              	.LVL34:
 672              	.L32:
 245:Core/Src/main.c ****   }
 673              		.loc 1 245 5 view .LVU174
 674 004e FFF7FEFF 		bl	Error_Handler
 675              	.LVL35:
 676              		.cfi_endproc
 677              	.LFE69:
 679              		.section	.text.main,"ax",%progbits
 680              		.align	1
 681              		.global	main
 682              		.syntax unified
 683              		.thumb
 684              		.thumb_func
 686              	main:
 687              	.LFB68:
 137:Core/Src/main.c **** 
 688              		.loc 1 137 16 view -0
 689              		.cfi_startproc
 690              		@ args = 0, pretend = 0, frame = 8
 691              		@ frame_needed = 0, uses_anonymous_args = 0
 692 0000 70B5     		push	{r4, r5, r6, lr}
 693              	.LCFI17:
 694              		.cfi_def_cfa_offset 16
 695              		.cfi_offset 4, -16
 696              		.cfi_offset 5, -12
 697              		.cfi_offset 6, -8
 698              		.cfi_offset 14, -4
 699 0002 82B0     		sub	sp, sp, #8
 700              	.LCFI18:
 701              		.cfi_def_cfa_offset 24
 147:Core/Src/main.c **** 
 702              		.loc 1 147 3 view .LVU176
 703 0004 FFF7FEFF 		bl	HAL_Init
 704              	.LVL36:
 154:Core/Src/main.c **** 
 705              		.loc 1 154 3 view .LVU177
 706 0008 FFF7FEFF 		bl	SystemClock_Config
 707              	.LVL37:
 161:Core/Src/main.c ****   MX_SPI2_Init();
 708              		.loc 1 161 3 view .LVU178
 709 000c FFF7FEFF 		bl	MX_GPIO_Init
 710              	.LVL38:
 162:Core/Src/main.c ****   /* USER CODE BEGIN 2 */
 711              		.loc 1 162 3 view .LVU179
 712 0010 FFF7FEFF 		bl	MX_SPI2_Init
 713              	.LVL39:
 169:Core/Src/main.c ****   GPIO_PinState last_button_state = GPIO_PIN_RESET;
ARM GAS  /tmp/ccTJbdVB.s 			page 24


 714              		.loc 1 169 3 view .LVU180
 170:Core/Src/main.c ****   uint8_t counter = 0;
 715              		.loc 1 170 3 view .LVU181
 171:Core/Src/main.c ****   // const uint8_t message[] = "hello!1";
 716              		.loc 1 171 3 view .LVU182
 171:Core/Src/main.c ****   // const uint8_t message[] = "hello!1";
 717              		.loc 1 171 11 is_stmt 0 view .LVU183
 718 0014 0026     		movs	r6, #0
 170:Core/Src/main.c ****   uint8_t counter = 0;
 719              		.loc 1 170 17 view .LVU184
 720 0016 3546     		mov	r5, r6
 721 0018 03E0     		b	.L35
 722              	.LVL40:
 723              	.L34:
 187:Core/Src/main.c **** 
 724              		.loc 1 187 5 is_stmt 1 view .LVU185
 189:Core/Src/main.c ****                    // beipsilsweise
 725              		.loc 1 189 5 view .LVU186
 726 001a 3220     		movs	r0, #50
 727 001c FFF7FEFF 		bl	HAL_Delay
 728              	.LVL41:
 174:Core/Src/main.c ****     HAL_GPIO_WritePin(GPIOC, GPIO_PIN_8, GPIO_PIN_RESET);
 729              		.loc 1 174 9 view .LVU187
 187:Core/Src/main.c **** 
 730              		.loc 1 187 23 is_stmt 0 view .LVU188
 731 0020 2546     		mov	r5, r4
 732              	.LVL42:
 733              	.L35:
 174:Core/Src/main.c ****     HAL_GPIO_WritePin(GPIOC, GPIO_PIN_8, GPIO_PIN_RESET);
 734              		.loc 1 174 3 is_stmt 1 view .LVU189
 175:Core/Src/main.c ****     HAL_GPIO_WritePin(GPIOC, GPIO_PIN_9, GPIO_PIN_RESET);
 735              		.loc 1 175 5 view .LVU190
 736 0022 184C     		ldr	r4, .L37
 737 0024 0022     		movs	r2, #0
 738 0026 4FF48071 		mov	r1, #256
 739 002a 2046     		mov	r0, r4
 740 002c FFF7FEFF 		bl	HAL_GPIO_WritePin
 741              	.LVL43:
 176:Core/Src/main.c **** 
 742              		.loc 1 176 5 view .LVU191
 743 0030 0022     		movs	r2, #0
 744 0032 4FF40071 		mov	r1, #512
 745 0036 2046     		mov	r0, r4
 746 0038 FFF7FEFF 		bl	HAL_GPIO_WritePin
 747              	.LVL44:
 178:Core/Src/main.c **** 
 748              		.loc 1 178 5 view .LVU192
 178:Core/Src/main.c **** 
 749              		.loc 1 178 20 is_stmt 0 view .LVU193
 750 003c 0121     		movs	r1, #1
 751 003e 1248     		ldr	r0, .L37+4
 752 0040 FFF7FEFF 		bl	HAL_GPIO_ReadPin
 753              	.LVL45:
 754 0044 0446     		mov	r4, r0
 755              	.LVL46:
 180:Core/Src/main.c ****       HAL_GPIO_TogglePin(GPIOC, GPIO_PIN_8);
 756              		.loc 1 180 5 is_stmt 1 view .LVU194
ARM GAS  /tmp/ccTJbdVB.s 			page 25


 180:Core/Src/main.c ****       HAL_GPIO_TogglePin(GPIOC, GPIO_PIN_8);
 757              		.loc 1 180 8 is_stmt 0 view .LVU195
 758 0046 0128     		cmp	r0, #1
 759 0048 E7D1     		bne	.L34
 180:Core/Src/main.c ****       HAL_GPIO_TogglePin(GPIOC, GPIO_PIN_8);
 760              		.loc 1 180 38 discriminator 1 view .LVU196
 761 004a 002D     		cmp	r5, #0
 762 004c E5D1     		bne	.L34
 763              	.LBB9:
 181:Core/Src/main.c ****       HAL_GPIO_TogglePin(GPIOC, GPIO_PIN_9);
 764              		.loc 1 181 7 is_stmt 1 view .LVU197
 765 004e 05F18045 		add	r5, r5, #1073741824
 766              	.LVL47:
 181:Core/Src/main.c ****       HAL_GPIO_TogglePin(GPIOC, GPIO_PIN_9);
 767              		.loc 1 181 7 is_stmt 0 view .LVU198
 768 0052 05F58835 		add	r5, r5, #69632
 769              	.LVL48:
 181:Core/Src/main.c ****       HAL_GPIO_TogglePin(GPIOC, GPIO_PIN_9);
 770              		.loc 1 181 7 view .LVU199
 771 0056 4FF48071 		mov	r1, #256
 772 005a 2846     		mov	r0, r5
 773              	.LVL49:
 181:Core/Src/main.c ****       HAL_GPIO_TogglePin(GPIOC, GPIO_PIN_9);
 774              		.loc 1 181 7 view .LVU200
 775 005c FFF7FEFF 		bl	HAL_GPIO_TogglePin
 776              	.LVL50:
 182:Core/Src/main.c ****       EEPROM_WriteByte(0x0000, counter);
 777              		.loc 1 182 7 is_stmt 1 view .LVU201
 778 0060 4FF40071 		mov	r1, #512
 779 0064 2846     		mov	r0, r5
 780 0066 FFF7FEFF 		bl	HAL_GPIO_TogglePin
 781              	.LVL51:
 183:Core/Src/main.c ****       volatile uint8_t value = EEPROM_ReadByte(0x0000);
 782              		.loc 1 183 7 view .LVU202
 783 006a 3146     		mov	r1, r6
 784 006c 0020     		movs	r0, #0
 785 006e FFF7FEFF 		bl	EEPROM_WriteByte
 786              	.LVL52:
 184:Core/Src/main.c ****       counter++;
 787              		.loc 1 184 7 view .LVU203
 184:Core/Src/main.c ****       counter++;
 788              		.loc 1 184 32 is_stmt 0 view .LVU204
 789 0072 0020     		movs	r0, #0
 790 0074 FFF7FEFF 		bl	EEPROM_ReadByte
 791              	.LVL53:
 184:Core/Src/main.c ****       counter++;
 792              		.loc 1 184 24 discriminator 1 view .LVU205
 793 0078 8DF80700 		strb	r0, [sp, #7]
 185:Core/Src/main.c ****     }
 794              		.loc 1 185 7 is_stmt 1 view .LVU206
 185:Core/Src/main.c ****     }
 795              		.loc 1 185 14 is_stmt 0 view .LVU207
 796 007c 0136     		adds	r6, r6, #1
 797              	.LVL54:
 185:Core/Src/main.c ****     }
 798              		.loc 1 185 14 view .LVU208
 799 007e F6B2     		uxtb	r6, r6
ARM GAS  /tmp/ccTJbdVB.s 			page 26


 800              	.LVL55:
 185:Core/Src/main.c ****     }
 801              		.loc 1 185 14 view .LVU209
 802 0080 CBE7     		b	.L34
 803              	.L38:
 804 0082 00BF     		.align	2
 805              	.L37:
 806 0084 00100140 		.word	1073811456
 807 0088 00080140 		.word	1073809408
 808              	.LBE9:
 809              		.cfi_endproc
 810              	.LFE68:
 812              		.global	hspi2
 813              		.section	.bss.hspi2,"aw",%nobits
 814              		.align	2
 817              	hspi2:
 818 0000 00000000 		.space	88
 818      00000000 
 818      00000000 
 818      00000000 
 818      00000000 
 819              		.text
 820              	.Letext0:
 821              		.file 3 "/usr/lib/gcc/arm-none-eabi/13.2.1/include/stdint.h"
 822              		.file 4 "Drivers/CMSIS/Device/ST/STM32F1xx/Include/stm32f100xb.h"
 823              		.file 5 "Drivers/STM32F1xx_HAL_Driver/Inc/stm32f1xx_hal_def.h"
 824              		.file 6 "Drivers/STM32F1xx_HAL_Driver/Inc/stm32f1xx_hal_rcc.h"
 825              		.file 7 "Drivers/STM32F1xx_HAL_Driver/Inc/stm32f1xx_hal_rcc_ex.h"
 826              		.file 8 "Drivers/STM32F1xx_HAL_Driver/Inc/stm32f1xx_hal_gpio.h"
 827              		.file 9 "Drivers/STM32F1xx_HAL_Driver/Inc/stm32f1xx_hal_dma.h"
 828              		.file 10 "Drivers/STM32F1xx_HAL_Driver/Inc/stm32f1xx_hal_spi.h"
 829              		.file 11 "Drivers/STM32F1xx_HAL_Driver/Inc/stm32f1xx_hal.h"
 830              		.file 12 "<built-in>"
ARM GAS  /tmp/ccTJbdVB.s 			page 27

